; Function Attrs: mustprogress nounwind uwtable
define dso_local noundef zeroext i1 @_ZNK4llvm10X86TTIImpl20isLegalBroadcastLoadEPNS_4TypeENS_12ElementCountE(ptr noundef nonnull readonly align 8 captures(none) dereferenceable(72) %0, ptr noundef readonly %1, i64 %2) local_unnamed_addr #3 align 2 {
  %4 = getelementptr inbounds nuw i8, ptr %0, i64 16
  %5 = load ptr, ptr %4, align 8
  %6 = getelementptr inbounds nuw i8, ptr %5, i64 304
  %7 = load i32, ptr %6, align 8
  %8 = icmp sgt i32 %7, 2
  %9 = and i64 %2, 8589934591
  %or.cond = icmp eq i64 %9, 2
  %or.cond4 = select i1 %8, i1 %or.cond, i1 false
  br i1 %or.cond4, label %10, label %14

10:                                               ; preds = %3
  %11 = load ptr, ptr %1, align 8
  %12 = tail call noundef ptr @_ZN4llvm4Type11getDoubleTyERNS_11LLVMContextE(ptr noundef nonnull align 8 dereferenceable(8) %11) #17
  %13 = icmp eq ptr %1, %12
  br label %14

14:                                               ; preds = %10, %3
  %15 = phi i1 [ false, %3 ], [ %13, %10 ]
  ret i1 %15
}